; Function Attrs: mustprogress uwtable
define void @_ZN3nix10switchLinkENSt7__cxx1112basic_stringIcSt11char_traitsIcESaIcEEES5_(ptr noundef %0, ptr noundef %1) local_unnamed_addr #5 personality ptr @__gxx_personality_v0 {
  %3 = alloca %"class.std::__cxx11::basic_string", align 8
  %4 = alloca %"class.std::__cxx11::basic_string", align 8
  %5 = load ptr, ptr %1, align 8
  %6 = getelementptr inbounds i8, ptr %1, i64 8
  %7 = load i64, ptr %6, align 8
  call void @_ZN3nix5dirOfB5cxx11ESt17basic_string_viewIcSt11char_traitsIcEE(ptr dead_on_unwind nonnull writable sret(%"class.std::__cxx11::basic_string") align 8 %3, i64 %7, ptr %5)
  %8 = load ptr, ptr %0, align 8
  %9 = getelementptr inbounds i8, ptr %0, i64 8
  %10 = load i64, ptr %9, align 8
  invoke void @_ZN3nix5dirOfB5cxx11ESt17basic_string_viewIcSt11char_traitsIcEE(ptr dead_on_unwind nonnull writable sret(%"class.std::__cxx11::basic_string") align 8 %4, i64 %10, ptr %8)
          to label %11 unwind label %40

11:                                               ; preds = %2
  %12 = getelementptr inbounds i8, ptr %3, i64 8
  %13 = load i64, ptr %12, align 8
  %14 = getelementptr inbounds i8, ptr %4, i64 8
  %15 = load i64, ptr %14, align 8
  %16 = icmp eq i64 %13, %15
  br i1 %16, label %17, label %._ZSteqIcEN9__gnu_cxx11__enable_ifIXsr9__is_charIT_EE7__valueEbE6__typeERKNSt7__cxx1112basic_stringIS2_St11char_traitsIS2_ESaIS2_EEESC_.exit_crit_edge

._ZSteqIcEN9__gnu_cxx11__enable_ifIXsr9__is_charIT_EE7__valueEbE6__typeERKNSt7__cxx1112basic_stringIS2_St11char_traitsIS2_ESaIS2_EEESC_.exit_crit_edge: ; preds = %11
  %.pre = load ptr, ptr %4, align 8
  br label %_ZSteqIcEN9__gnu_cxx11__enable_ifIXsr9__is_charIT_EE7__valueEbE6__typeERKNSt7__cxx1112basic_stringIS2_St11char_traitsIS2_ESaIS2_EEESC_.exit

17:                                               ; preds = %11
  %18 = icmp eq i64 %13, 0
  %.pre12 = load ptr, ptr %4, align 8
  br i1 %18, label %_ZSteqIcEN9__gnu_cxx11__enable_ifIXsr9__is_charIT_EE7__valueEbE6__typeERKNSt7__cxx1112basic_stringIS2_St11char_traitsIS2_ESaIS2_EEESC_.exit, label %19

19:                                               ; preds = %17
  %20 = load ptr, ptr %3, align 8
  %bcmp.i = call i32 @bcmp(ptr %20, ptr %.pre12, i64 %13)
  %21 = icmp eq i32 %bcmp.i, 0
  br label %_ZSteqIcEN9__gnu_cxx11__enable_ifIXsr9__is_charIT_EE7__valueEbE6__typeERKNSt7__cxx1112basic_stringIS2_St11char_traitsIS2_ESaIS2_EEESC_.exit

_ZSteqIcEN9__gnu_cxx11__enable_ifIXsr9__is_charIT_EE7__valueEbE6__typeERKNSt7__cxx1112basic_stringIS2_St11char_traitsIS2_ESaIS2_EEESC_.exit: ; preds = %._ZSteqIcEN9__gnu_cxx11__enable_ifIXsr9__is_charIT_EE7__valueEbE6__typeERKNSt7__cxx1112basic_stringIS2_St11char_traitsIS2_ESaIS2_EEESC_.exit_crit_edge, %17, %19
  %22 = phi ptr [ %.pre, %._ZSteqIcEN9__gnu_cxx11__enable_ifIXsr9__is_charIT_EE7__valueEbE6__typeERKNSt7__cxx1112basic_stringIS2_St11char_traitsIS2_ESaIS2_EEESC_.exit_crit_edge ], [ %.pre12, %19 ], [ %.pre12, %17 ]
  %23 = phi i1 [ false, %._ZSteqIcEN9__gnu_cxx11__enable_ifIXsr9__is_charIT_EE7__valueEbE6__typeERKNSt7__cxx1112basic_stringIS2_St11char_traitsIS2_ESaIS2_EEESC_.exit_crit_edge ], [ %21, %19 ], [ true, %17 ]
  %24 = getelementptr inbounds i8, ptr %4, i64 16
  %25 = icmp eq ptr %22, %24
  br i1 %25, label %_ZNKSt7__cxx1112basic_stringIcSt11char_traitsIcESaIcEE11_M_is_localEv.exit.thread.i.i, label %_ZNKSt7__cxx1112basic_stringIcSt11char_traitsIcESaIcEE11_M_is_localEv.exit.i.i

_ZNKSt7__cxx1112basic_stringIcSt11char_traitsIcESaIcEE11_M_is_localEv.exit.thread.i.i: ; preds = %_ZSteqIcEN9__gnu_cxx11__enable_ifIXsr9__is_charIT_EE7__valueEbE6__typeERKNSt7__cxx1112basic_stringIS2_St11char_traitsIS2_ESaIS2_EEESC_.exit
  %26 = icmp ult i64 %15, 16
  call void @llvm.assume(i1 %26)
  br label %_ZNSt7__cxx1112basic_stringIcSt11char_traitsIcESaIcEED2Ev.exit

_ZNKSt7__cxx1112basic_stringIcSt11char_traitsIcESaIcEE11_M_is_localEv.exit.i.i: ; preds = %_ZSteqIcEN9__gnu_cxx11__enable_ifIXsr9__is_charIT_EE7__valueEbE6__typeERKNSt7__cxx1112basic_stringIS2_St11char_traitsIS2_ESaIS2_EEESC_.exit
  call void @_ZdlPv(ptr noundef %22) #28
  br label %_ZNSt7__cxx1112basic_stringIcSt11char_traitsIcESaIcEED2Ev.exit

_ZNSt7__cxx1112basic_stringIcSt11char_traitsIcESaIcEED2Ev.exit: ; preds = %_ZNKSt7__cxx1112basic_stringIcSt11char_traitsIcESaIcEE11_M_is_localEv.exit.thread.i.i, %_ZNKSt7__cxx1112basic_stringIcSt11char_traitsIcESaIcEE11_M_is_localEv.exit.i.i
  call void @_ZNSaIcED2Ev(ptr noundef nonnull align 1 dereferenceable(1) %4) #25
  %27 = load ptr, ptr %3, align 8
  %28 = getelementptr inbounds i8, ptr %3, i64 16
  %29 = icmp eq ptr %27, %28
  br i1 %29, label %_ZNKSt7__cxx1112basic_stringIcSt11char_traitsIcESaIcEE11_M_is_localEv.exit.thread.i.i8, label %_ZNKSt7__cxx1112basic_stringIcSt11char_traitsIcESaIcEE11_M_is_localEv.exit.i.i7

_ZNKSt7__cxx1112basic_stringIcSt11char_traitsIcESaIcEE11_M_is_localEv.exit.thread.i.i8: ; preds = %_ZNSt7__cxx1112basic_stringIcSt11char_traitsIcESaIcEED2Ev.exit
  %30 = load i64, ptr %12, align 8
  %31 = icmp ult i64 %30, 16
  call void @llvm.assume(i1 %31)
  br label %_ZNSt7__cxx1112basic_stringIcSt11char_traitsIcESaIcEED2Ev.exit9

_ZNKSt7__cxx1112basic_stringIcSt11char_traitsIcESaIcEE11_M_is_localEv.exit.i.i7: ; preds = %_ZNSt7__cxx1112basic_stringIcSt11char_traitsIcESaIcEED2Ev.exit
  call void @_ZdlPv(ptr noundef %27) #28
  br label %_ZNSt7__cxx1112basic_stringIcSt11char_traitsIcESaIcEED2Ev.exit9

_ZNSt7__cxx1112basic_stringIcSt11char_traitsIcESaIcEED2Ev.exit9: ; preds = %_ZNKSt7__cxx1112basic_stringIcSt11char_traitsIcESaIcEE11_M_is_localEv.exit.thread.i.i8, %_ZNKSt7__cxx1112basic_stringIcSt11char_traitsIcESaIcEE11_M_is_localEv.exit.i.i7
  call void @_ZNSaIcED2Ev(ptr noundef nonnull align 1 dereferenceable(1) %3) #25
  br i1 %23, label %32, label %42

32:                                               ; preds = %_ZNSt7__cxx1112basic_stringIcSt11char_traitsIcESaIcEED2Ev.exit9
  %33 = load ptr, ptr %1, align 8
  %34 = load i64, ptr %6, align 8
  %35 = call { i64, ptr } @_ZN3nix10baseNameOfESt17basic_string_viewIcSt11char_traitsIcEE(i64 %34, ptr %33)
  %36 = extractvalue { i64, ptr } %35, 0
  %37 = extractvalue { i64, ptr } %35, 1
  %38 = load i64, ptr %6, align 8
  %39 = call noundef nonnull align 8 dereferenceable(32) ptr @_ZNSt7__cxx1112basic_stringIcSt11char_traitsIcESaIcEE10_M_replaceEmmPKcm(ptr noundef nonnull align 8 dereferenceable(32) %1, i64 noundef 0, i64 noundef %38, ptr noundef %37, i64 noundef %36)
  br label %42

40:                                               ; preds = %2
  %41 = landingpad { ptr, i32 }
          cleanup
  call void @_ZNSt7__cxx1112basic_stringIcSt11char_traitsIcESaIcEED2Ev(ptr noundef nonnull align 8 dereferenceable(32) %3) #25
  resume { ptr, i32 } %41

42:                                               ; preds = %32, %_ZNSt7__cxx1112basic_stringIcSt11char_traitsIcESaIcEED2Ev.exit9
  call void @_ZN3nix14replaceSymlinkERKNSt7__cxx1112basic_stringIcSt11char_traitsIcESaIcEEES7_(ptr noundef nonnull align 8 dereferenceable(32) %1, ptr noundef nonnull align 8 dereferenceable(32) %0)
  ret void
}